(dp0
I0
(icore.engine
StatCollection
p1
(dp2
S'status'
p3
I200
sS'latency'
p4
F0.6005054968700279
sS'avg_connect_latency'
p5
F0.545046956617702
sS'count'
p6
I80
sS'total_connect_latency'
p7
F43.60375652941616
sS'avg_latency'
p8
F0.6856368092199544
sS'reason'
p9
S'OK'
p10
sS'agent_start_time'
p11
S'06:26:23'
p12
sS'error_count'
p13
I1
sS'total_latency'
p14
F54.85094473759635
sS'total_bytes'
p15
I3753544
sbs.