(dp0
I0
(icore.engine
StatCollection
p1
(dp2
S'status'
p3
I0
sS'latency'
p4
F0.20207440822559875
sS'avg_connect_latency'
p5
F0.821926179481989
sS'count'
p6
I37
sS'total_connect_latency'
p7
F30.41126864083359
sS'avg_latency'
p8
F0.9357647322375557
sS'reason'
p9
S'[Errno 11004] getaddrinfo failed'
p10
sS'agent_start_time'
p11
S'17:34:49'
p12
sS'error_count'
p13
I2
sS'total_latency'
p14
F34.62329509278956
sS'total_bytes'
p15
I1663791
sbs.